Certificate:
    Data:
        Version: 3 (0x2)
        Serial Number: 1 (0x1)
    Signature Algorithm: sha256WithRSAEncryption
        Issuer: C=US, ST=CA, L=SanFrancisco, O=OpenVPN, OU=changeme, CN=changeme/name=changeme/emailAddress=mail@host.domain
        Validity
            Not Before: Jan  8 00:38:47 2024 GMT
            Not After : Jan  5 00:38:47 2034 GMT
        Subject: C=US, ST=CA, L=SanFrancisco, O=OpenVPN, OU=changeme, CN=changeme/name=changeme/emailAddress=mail@host.domain
        Subject Public Key Info:
            Public Key Algorithm: rsaEncryption
                Public-Key: (4096 bit)
                Modulus:
                    00:af:4d:60:45:5b:b7:80:43:b3:5a:c0:a7:7c:65:
                    16:25:29:6a:df:ce:91:c5:c4:4b:bc:96:18:ec:9c:
                    70:31:73:28:25:6c:9f:6b:1a:1a:6d:dd:57:dd:20:
                    f3:30:1e:64:74:55:bc:c1:3e:ed:05:88:8c:99:ea:
                    32:a7:05:9b:70:df:42:dc:4a:00:41:17:73:80:d8:
                    f4:30:4d:b8:46:f0:5e:0a:17:07:72:ca:40:e2:07:
                    f1:bf:57:59:d8:f2:72:0c:37:c8:8e:31:5b:e4:fe:
                    9b:92:95:d0:89:c6:52:b0:28:a8:c1:d9:8e:52:db:
                    04:d1:73:75:f6:be:9a:a4:cc:86:84:49:11:ef:4d:
                    08:26:fe:a9:38:d3:12:26:4a:d1:7e:6c:35:5f:f9:
                    25:a4:24:f7:34:9f:24:50:96:78:c8:8b:c5:64:e0:
                    c2:60:e3:85:0a:b8:5c:ec:20:d8:e2:16:0b:18:37:
                    b2:7d:6d:b4:ef:bd:e2:e5:9a:1a:fd:4d:8d:27:22:
                    7b:f4:98:84:f0:ff:1c:85:8a:89:9e:5a:10:e3:40:
                    42:47:3c:0a:9c:7e:6b:42:72:30:4f:be:12:aa:16:
                    b0:5c:f7:a1:b6:c5:c9:87:81:68:b8:e5:94:57:2b:
                    53:17:f1:d0:1f:8f:fe:d8:c7:ce:48:c5:92:26:b6:
                    95:a3:70:d6:ba:55:27:ed:c1:52:36:74:8b:40:30:
                    18:16:0a:cc:fe:c3:a7:0a:67:69:4e:36:8a:9b:2c:
                    46:36:9a:04:34:03:5e:cb:28:4d:6c:05:1c:ef:2c:
                    a8:21:c4:b9:e2:96:08:0d:cb:e4:68:e6:37:14:2f:
                    d7:51:3f:cc:5f:ef:a1:32:e7:c4:c8:77:2c:33:29:
                    34:da:c8:c6:c7:75:67:6c:46:95:01:6f:43:61:59:
                    1b:19:22:7a:4a:8a:51:43:92:d9:40:2f:49:38:4f:
                    40:09:7e:bd:f3:cb:76:a7:27:7a:c6:17:56:f2:69:
                    b7:c8:87:72:27:91:05:37:48:25:06:9e:44:cb:99:
                    06:a3:4e:ac:92:e2:aa:10:5d:ac:de:6d:84:1f:61:
                    a7:54:3c:1b:f9:4f:51:16:ea:d3:47:5a:01:e7:ca:
                    8b:ae:76:b7:54:e4:1e:0f:b9:7d:f4:6c:32:71:2d:
                    e1:0f:82:a6:b1:4a:b2:cb:e8:70:72:67:19:53:8d:
                    5e:aa:e2:04:f1:83:b1:43:ee:6b:76:36:57:b2:4d:
                    30:10:e5:e4:1e:64:99:ad:d5:46:aa:c4:51:1c:e4:
                    bb:50:67:95:5d:48:ab:a9:68:6d:b5:87:0e:57:b7:
                    f9:a0:bf:38:95:b3:ff:5d:5e:6a:a8:23:15:e7:29:
                    6e:a1:ef
                Exponent: 65537 (0x10001)
        X509v3 extensions:
            X509v3 Basic Constraints: 
                CA:FALSE
            Netscape Cert Type: 
                SSL Server
            Netscape Comment: 
                Easy-RSA Generated Server Certificate
            X509v3 Subject Key Identifier: 
                EA:3F:3A:19:6F:49:04:E6:EF:EE:9D:06:16:DB:D6:B9:E3:FD:E6:09
            X509v3 Authority Key Identifier: 
                keyid:F8:8E:64:15:04:E6:BA:9F:23:62:60:81:EB:46:54:54:EF:D0:3C:AE
                DirName:/C=US/ST=CA/L=SanFrancisco/O=OpenVPN/OU=changeme/CN=changeme/name=changeme/emailAddress=mail@host.domain
                serial:BA:B7:75:E0:91:94:FC:8E

            X509v3 Extended Key Usage: 
                TLS Web Server Authentication
            X509v3 Key Usage: 
                Digital Signature, Key Encipherment
    Signature Algorithm: sha256WithRSAEncryption
         6b:f1:60:bc:69:0b:c5:5d:03:3f:f5:35:17:03:3c:5f:44:cf:
         e2:e1:ba:05:3d:6a:98:6e:08:1e:13:00:c2:f6:96:99:7d:8b:
         7c:32:5a:2b:d3:28:6c:c2:78:45:0e:29:28:ab:41:d2:92:f3:
         8f:3f:ef:38:82:72:d3:5a:87:23:16:14:94:cf:2f:ab:4a:57:
         37:6f:5d:51:52:e9:e7:e6:68:3a:20:70:33:9f:b1:a1:84:eb:
         48:c6:84:9b:37:7c:a3:e5:50:14:75:43:85:af:a4:3d:2a:a7:
         72:ca:28:85:ea:69:c1:04:56:d6:cd:71:7f:b8:2b:52:2c:6a:
         93:4a:e4:52:b3:9d:ae:58:31:5a:7a:8f:d4:c0:04:37:27:68:
         ca:0d:ca:d3:1e:39:a1:53:63:87:55:45:bb:89:27:f9:b1:32:
         af:8c:a0:a7:d6:aa:90:cb:7d:16:48:e1:04:71:68:32:e5:b9:
         74:e2:ce:34:6e:b0:91:c3:63:a9:2b:15:eb:54:3c:9e:9d:63:
         14:03:11:5b:5e:c8:84:f2:28:71:68:6b:01:ee:0d:6b:ad:c9:
         a0:84:74:55:a4:03:00:14:2b:4f:c5:13:bd:7c:60:5a:c4:5f:
         a3:d0:f0:e8:2a:eb:fd:84:6a:ff:15:ea:cf:e6:93:8f:5a:c0:
         2f:11:b1:f6:76:cd:80:3b:01:fc:0f:ac:8d:2d:5d:78:f8:b1:
         da:40:0d:5f:ca:6b:c8:58:1d:4c:16:30:dc:0f:c3:16:57:03:
         7c:c9:e9:7c:71:b6:bc:42:1e:51:da:4d:b1:0d:f4:e9:9c:43:
         42:11:fd:f1:2e:c8:58:f9:21:4a:54:55:cb:39:d4:47:8d:a1:
         e0:ad:1b:1c:d4:fb:d5:63:96:69:12:17:60:27:1a:c6:d5:71:
         a8:f6:47:3f:b2:57:a9:19:5e:f0:fe:15:0a:c9:bc:10:b5:a1:
         fd:38:36:08:31:d0:d8:a0:1b:7c:a1:a6:c0:71:fa:86:7e:3b:
         5f:ea:45:71:76:c3:60:01:a9:f6:b6:18:88:a4:d7:6d:70:60:
         52:6c:5a:9a:8d:ab:12:25:b0:0c:44:2b:77:8c:25:a3:ce:53:
         f7:12:82:53:73:d6:fd:24:56:9a:bc:f1:af:7f:74:fe:58:ca:
         72:6d:77:15:c8:ca:b1:72:b7:6c:7f:61:e9:35:49:50:5b:70:
         67:c5:19:d4:c9:c0:71:d4:dc:aa:0c:8d:2c:20:a6:9d:48:87:
         96:9d:8e:ee:f1:ec:7b:85:f1:5a:27:06:15:a7:4c:38:63:28:
         f9:90:23:5e:91:ab:14:3a:e1:21:4d:88:9c:fe:49:eb:62:4c:
         d9:6e:a2:47:9c:85:c6:e5
-----BEGIN CERTIFICATE-----
MIIHJzCCBQ+gAwIBAgIBATANBgkqhkiG9w0BAQsFADCBnTELMAkGA1UEBhMCVVMx
CzAJBgNVBAgTAkNBMRUwEwYDVQQHEwxTYW5GcmFuY2lzY28xEDAOBgNVBAoTB09w
ZW5WUE4xETAPBgNVBAsTCGNoYW5nZW1lMREwDwYDVQQDEwhjaGFuZ2VtZTERMA8G
A1UEKRMIY2hhbmdlbWUxHzAdBgkqhkiG9w0BCQEWEG1haWxAaG9zdC5kb21haW4w
HhcNMjQwMTA4MDAzODQ3WhcNMzQwMTA1MDAzODQ3WjCBnTELMAkGA1UEBhMCVVMx
CzAJBgNVBAgTAkNBMRUwEwYDVQQHEwxTYW5GcmFuY2lzY28xEDAOBgNVBAoTB09w
ZW5WUE4xETAPBgNVBAsTCGNoYW5nZW1lMREwDwYDVQQDEwhjaGFuZ2VtZTERMA8G
A1UEKRMIY2hhbmdlbWUxHzAdBgkqhkiG9w0BCQEWEG1haWxAaG9zdC5kb21haW4w
ggIiMA0GCSqGSIb3DQEBAQUAA4ICDwAwggIKAoICAQCvTWBFW7eAQ7NawKd8ZRYl
KWrfzpHFxEu8lhjsnHAxcyglbJ9rGhpt3VfdIPMwHmR0VbzBPu0FiIyZ6jKnBZtw
30LcSgBBF3OA2PQwTbhG8F4KFwdyykDiB/G/V1nY8nIMN8iOMVvk/puSldCJxlKw
KKjB2Y5S2wTRc3X2vpqkzIaESRHvTQgm/qk40xImStF+bDVf+SWkJPc0nyRQlnjI
i8Vk4MJg44UKuFzsINjiFgsYN7J9bbTvveLlmhr9TY0nInv0mITw/xyFiomeWhDj
QEJHPAqcfmtCcjBPvhKqFrBc96G2xcmHgWi45ZRXK1MX8dAfj/7Yx85IxZImtpWj
cNa6VSftwVI2dItAMBgWCsz+w6cKZ2lONoqbLEY2mgQ0A17LKE1sBRzvLKghxLni
lggNy+Ro5jcUL9dRP8xf76Ey58TIdywzKTTayMbHdWdsRpUBb0NhWRsZInpKilFD
ktlAL0k4T0AJfr3zy3anJ3rGF1byabfIh3InkQU3SCUGnkTLmQajTqyS4qoQXaze
bYQfYadUPBv5T1EW6tNHWgHnyouudrdU5B4PuX30bDJxLeEPgqaxSrLL6HByZxlT
jV6q4gTxg7FD7mt2NleyTTAQ5eQeZJmt1UaqxFEc5LtQZ5VdSKupaG21hw5Xt/mg
vziVs/9dXmqoIxXnKW6h7wIDAQABo4IBbjCCAWowCQYDVR0TBAIwADARBglghkgB
hvhCAQEEBAMCBkAwNAYJYIZIAYb4QgENBCcWJUVhc3ktUlNBIEdlbmVyYXRlZCBT
ZXJ2ZXIgQ2VydGlmaWNhdGUwHQYDVR0OBBYEFOo/OhlvSQTm7+6dBhbb1rnj/eYJ
MIHSBgNVHSMEgcowgceAFPiOZBUE5rqfI2JggetGVFTv0DyuoYGjpIGgMIGdMQsw
CQYDVQQGEwJVUzELMAkGA1UECBMCQ0ExFTATBgNVBAcTDFNhbkZyYW5jaXNjbzEQ
MA4GA1UEChMHT3BlblZQTjERMA8GA1UECxMIY2hhbmdlbWUxETAPBgNVBAMTCGNo
YW5nZW1lMREwDwYDVQQpEwhjaGFuZ2VtZTEfMB0GCSqGSIb3DQEJARYQbWFpbEBo
b3N0LmRvbWFpboIJALq3deCRlPyOMBMGA1UdJQQMMAoGCCsGAQUFBwMBMAsGA1Ud
DwQEAwIFoDANBgkqhkiG9w0BAQsFAAOCAgEAa/FgvGkLxV0DP/U1FwM8X0TP4uG6
BT1qmG4IHhMAwvaWmX2LfDJaK9MobMJ4RQ4pKKtB0pLzjz/vOIJy01qHIxYUlM8v
q0pXN29dUVLp5+ZoOiBwM5+xoYTrSMaEmzd8o+VQFHVDha+kPSqncsooheppwQRW
1s1xf7grUixqk0rkUrOdrlgxWnqP1MAENydoyg3K0x45oVNjh1VFu4kn+bEyr4yg
p9aqkMt9FkjhBHFoMuW5dOLONG6wkcNjqSsV61Q8np1jFAMRW17IhPIocWhrAe4N
a63JoIR0VaQDABQrT8UTvXxgWsRfo9Dw6Crr/YRq/xXqz+aTj1rALxGx9nbNgDsB
/A+sjS1dePix2kANX8pryFgdTBYw3A/DFlcDfMnpfHG2vEIeUdpNsQ306ZxDQhH9
8S7IWPkhSlRVyznUR42h4K0bHNT71WOWaRIXYCcaxtVxqPZHP7JXqRle8P4VCsm8
ELWh/Tg2CDHQ2KAbfKGmwHH6hn47X+pFcXbDYAGp9rYYiKTXbXBgUmxamo2rEiWw
DEQrd4wlo85T9xKCU3PW/SRWmrzxr390/ljKcm13FcjKsXK3bH9h6TVJUFtwZ8UZ
1MnAcdTcqgyNLCCmnUiHlp2O7vHse4XxWicGFadMOGMo+ZAjXpGrFDrhIU2InP5J
62JM2W6iR5yFxuU=
-----END CERTIFICATE-----
